; Function Attrs: mustprogress uwtable
define noundef ptr @_ZNK6icu_756Format11getLocaleIDE18ULocDataLocaleTypeR10UErrorCode(ptr noundef nonnull align 8 dereferenceable(322) %this, i32 noundef %type, ptr noundef nonnull align 4 dereferenceable(4) %status) local_unnamed_addr #8 align 2 {
entry:
  %locBased = alloca %"class.icu_75::LocaleBased", align 8
  %validLocale = getelementptr inbounds i8, ptr %this, i64 165
  %actualLocale = getelementptr inbounds i8, ptr %this, i64 8
  store ptr %validLocale, ptr %locBased, align 8
  %actual.i = getelementptr inbounds i8, ptr %locBased, i64 8
  store ptr %actualLocale, ptr %actual.i, align 8
  %call = call noundef ptr @_ZNK6icu_7511LocaleBased11getLocaleIDE18ULocDataLocaleTypeR10UErrorCode(ptr noundef nonnull align 8 dereferenceable(16) %locBased, i32 noundef %type, ptr noundef nonnull align 4 dereferenceable(4) %status)
  ret ptr %call
}